; Function Attrs: mustprogress uwtable
define hidden noundef i32 @_ZNK2dd3fdd4findENS_3bddER8rational(ptr nocapture noundef nonnull readonly align 8 dereferenceable(40) %this, ptr nocapture noundef readonly %b, ptr noundef nonnull align 8 dereferenceable(32) %out_val) local_unnamed_addr #3 align 2 personality ptr @__gxx_personality_v0 {
entry:
  %agg.tmp = alloca %"class.dd::bdd", align 8
  %0 = load i32, ptr %b, align 8
  store i32 %0, ptr %agg.tmp, align 8
  %m.i = getelementptr inbounds i8, ptr %agg.tmp, i64 8
  %m3.i = getelementptr inbounds i8, ptr %b, i64 8
  %1 = load ptr, ptr %m3.i, align 8
  store ptr %1, ptr %m.i, align 8
  %m_nodes.i.i = getelementptr inbounds i8, ptr %1, i64 8
  %2 = load ptr, ptr %m_nodes.i.i, align 8
  %idxprom.i.i.i = zext i32 %0 to i64
  %arrayidx.i.i.i = getelementptr inbounds %"struct.dd::bdd_manager::bdd_node", ptr %2, i64 %idxprom.i.i.i
  %bf.load.i.i = load i32, ptr %arrayidx.i.i.i, align 4
  %bf.clear.i.i = and i32 %bf.load.i.i, 1023
  %cmp.not.i.i = icmp eq i32 %bf.clear.i.i, 1023
  br i1 %cmp.not.i.i, label %if.end.i.i, label %if.then.i.i

if.then.i.i:                                      ; preds = %entry
  %inc.i.i = add i32 %bf.load.i.i, 1
  %bf.value.i.i = and i32 %inc.i.i, 1023
  %bf.clear7.i.i = and i32 %bf.load.i.i, -1024
  %bf.set.i.i = or disjoint i32 %bf.value.i.i, %bf.clear7.i.i
  store i32 %bf.set.i.i, ptr %arrayidx.i.i.i, align 4
  br label %if.end.i.i

if.end.i.i:                                       ; preds = %if.then.i.i, %entry
  %m_free_nodes.i.i = getelementptr inbounds i8, ptr %1, i64 112
  %3 = load ptr, ptr %m_free_nodes.i.i, align 8
  %cmp.i.i.i.i.i = icmp eq ptr %3, null
  br i1 %cmp.i.i.i.i.i, label %_ZN2dd3bddC2ERKS0_.exit, label %_ZNK6vectorIjLb0EjE3endEv.exit.i.i.i

_ZNK6vectorIjLb0EjE3endEv.exit.i.i.i:             ; preds = %if.end.i.i
  %arrayidx.i.i.i.i.i = getelementptr inbounds i8, ptr %3, i64 -4
  %4 = load i32, ptr %arrayidx.i.i.i.i.i, align 4
  %5 = zext i32 %4 to i64
  %add.ptr.i.i.i.i = getelementptr inbounds i32, ptr %3, i64 %5
  %cmp.not3.not.i.i.i = icmp eq i32 %4, 0
  br i1 %cmp.not3.not.i.i.i, label %_ZN2dd3bddC2ERKS0_.exit, label %for.body.i.i.i

for.cond.i.i.i:                                   ; preds = %for.body.i.i.i
  %incdec.ptr.i.i.i = getelementptr inbounds i8, ptr %it.04.i.i.i, i64 4
  %cmp.not.not.i.i.i = icmp eq ptr %incdec.ptr.i.i.i, %add.ptr.i.i.i.i
  br i1 %cmp.not.not.i.i.i, label %_ZN2dd3bddC2ERKS0_.exit, label %for.body.i.i.i, !llvm.loop !6

for.body.i.i.i:                                   ; preds = %_ZNK6vectorIjLb0EjE3endEv.exit.i.i.i, %for.cond.i.i.i
  %it.04.i.i.i = phi ptr [ %incdec.ptr.i.i.i, %for.cond.i.i.i ], [ %3, %_ZNK6vectorIjLb0EjE3endEv.exit.i.i.i ]
  %6 = load i32, ptr %it.04.i.i.i, align 4
  %cmp3.i.i.i = icmp eq i32 %6, %0
  br i1 %cmp3.i.i.i, label %if.then9.i.i, label %for.cond.i.i.i

if.then9.i.i:                                     ; preds = %for.body.i.i.i
  tail call void @_Z26notify_assertion_violationPKciS0_(ptr noundef nonnull @.str.5, i32 noundef 186, ptr noundef nonnull @.str.6)
  tail call void @exit(i32 noundef 114) #16
  unreachable

_ZN2dd3bddC2ERKS0_.exit:                          ; preds = %for.cond.i.i.i, %if.end.i.i, %_ZNK6vectorIjLb0EjE3endEv.exit.i.i.i
  %call3 = invoke noundef i32 @_ZNK2dd3fdd9find_hintENS_3bddERK8rationalRS2_(ptr noundef nonnull align 8 dereferenceable(40) %this, ptr noundef nonnull %agg.tmp, ptr noundef nonnull align 8 dereferenceable(32) @_ZN8rational6m_zeroE, ptr noundef nonnull align 8 dereferenceable(32) %out_val)
          to label %invoke.cont2 unwind label %lpad, !range !17

invoke.cont2:                                     ; preds = %_ZN2dd3bddC2ERKS0_.exit
  %7 = load ptr, ptr %m.i, align 8
  %8 = load i32, ptr %agg.tmp, align 8
  %m_nodes.i.i2 = getelementptr inbounds i8, ptr %7, i64 8
  %9 = load ptr, ptr %m_nodes.i.i2, align 8
  %idxprom.i.i.i3 = zext i32 %8 to i64
  %arrayidx.i.i.i4 = getelementptr inbounds %"struct.dd::bdd_manager::bdd_node", ptr %9, i64 %idxprom.i.i.i3
  %bf.load.i.i5 = load i32, ptr %arrayidx.i.i.i4, align 4
  %bf.clear.i.i6 = and i32 %bf.load.i.i5, 1023
  %cmp.not.i.i7 = icmp eq i32 %bf.clear.i.i6, 1023
  br i1 %cmp.not.i.i7, label %if.end.i.i12, label %if.then.i.i8

if.then.i.i8:                                     ; preds = %invoke.cont2
  %dec.i.i = add i32 %bf.load.i.i5, 1023
  %bf.value.i.i9 = and i32 %dec.i.i, 1023
  %bf.clear7.i.i10 = and i32 %bf.load.i.i5, -1024
  %bf.set.i.i11 = or disjoint i32 %bf.value.i.i9, %bf.clear7.i.i10
  store i32 %bf.set.i.i11, ptr %arrayidx.i.i.i4, align 4
  br label %if.end.i.i12

if.end.i.i12:                                     ; preds = %if.then.i.i8, %invoke.cont2
  %m_free_nodes.i.i13 = getelementptr inbounds i8, ptr %7, i64 112
  %10 = load ptr, ptr %m_free_nodes.i.i13, align 8
  %cmp.i.i.i.i.i14 = icmp eq ptr %10, null
  br i1 %cmp.i.i.i.i.i14, label %_ZN2dd3bddD2Ev.exit, label %_ZNK6vectorIjLb0EjE3endEv.exit.i.i.i15

_ZNK6vectorIjLb0EjE3endEv.exit.i.i.i15:           ; preds = %if.end.i.i12
  %arrayidx.i.i.i.i.i16 = getelementptr inbounds i8, ptr %10, i64 -4
  %11 = load i32, ptr %arrayidx.i.i.i.i.i16, align 4
  %12 = zext i32 %11 to i64
  %add.ptr.i.i.i.i17 = getelementptr inbounds i32, ptr %10, i64 %12
  %cmp.not3.not.i.i.i18 = icmp eq i32 %11, 0
  br i1 %cmp.not3.not.i.i.i18, label %_ZN2dd3bddD2Ev.exit, label %for.body.i.i.i19

for.cond.i.i.i22:                                 ; preds = %for.body.i.i.i19
  %incdec.ptr.i.i.i23 = getelementptr inbounds i8, ptr %it.04.i.i.i20, i64 4
  %cmp.not.not.i.i.i24 = icmp eq ptr %incdec.ptr.i.i.i23, %add.ptr.i.i.i.i17
  br i1 %cmp.not.not.i.i.i24, label %_ZN2dd3bddD2Ev.exit, label %for.body.i.i.i19, !llvm.loop !6

for.body.i.i.i19:                                 ; preds = %_ZNK6vectorIjLb0EjE3endEv.exit.i.i.i15, %for.cond.i.i.i22
  %it.04.i.i.i20 = phi ptr [ %incdec.ptr.i.i.i23, %for.cond.i.i.i22 ], [ %10, %_ZNK6vectorIjLb0EjE3endEv.exit.i.i.i15 ]
  %13 = load i32, ptr %it.04.i.i.i20, align 4
  %cmp3.i.i.i21 = icmp eq i32 %13, %8
  br i1 %cmp3.i.i.i21, label %if.then9.i.i25, label %for.cond.i.i.i22

if.then9.i.i25:                                   ; preds = %for.body.i.i.i19
  invoke void @_Z26notify_assertion_violationPKciS0_(ptr noundef nonnull @.str.5, i32 noundef 187, ptr noundef nonnull @.str.6)
          to label %.noexc.i unwind label %terminate.lpad.i

.noexc.i:                                         ; preds = %if.then9.i.i25
  call void @exit(i32 noundef 114) #16
  unreachable

terminate.lpad.i:                                 ; preds = %if.then9.i.i25
  %14 = landingpad { ptr, i32 }
          catch ptr null
  %15 = extractvalue { ptr, i32 } %14, 0
  call void @__clang_call_terminate(ptr %15) #16
  unreachable

_ZN2dd3bddD2Ev.exit:                              ; preds = %for.cond.i.i.i22, %if.end.i.i12, %_ZNK6vectorIjLb0EjE3endEv.exit.i.i.i15
  ret i32 %call3

lpad:                                             ; preds = %_ZN2dd3bddC2ERKS0_.exit
  %16 = landingpad { ptr, i32 }
          cleanup
  call void @_ZN2dd3bddD2Ev(ptr noundef nonnull align 8 dereferenceable(16) %agg.tmp) #14
  resume { ptr, i32 } %16
}